target datalayout = "e-m:e-p270:32:32-p271:32:32-p272:64:64-i64:64-i128:128-f80:128-n8:16:32:64-S128"
target triple = "x86_64-pc-linux-gnu"

%struct.path_info = type { [20 x [255 x i8]], i32 }

@stderr = external global ptr, align 8
@.str.12 = private unnamed_addr constant [3 x i8] c"%s\00", align 1
@__const.parsePathInfo.delimiter = private unnamed_addr constant [3 x i8] c"/\22\00", align 1
@.str.310 = private unnamed_addr constant [47 x i8] c"Path string larger than MAX_PATH_NAME_LENGTH.\0A\00", align 1

; Function Attrs: nounwind uwtable
define internal i32 @parsePathInfo(ptr noundef %0, ptr noundef %1) #0 {
  %3 = alloca i32, align 4
  %4 = alloca ptr, align 8
  %5 = alloca ptr, align 8
  %6 = alloca [3 x i8], align 1
  %7 = alloca ptr, align 8
  %8 = alloca i32, align 4
  %9 = alloca ptr, align 8
  %10 = alloca i32, align 4
  store ptr %0, ptr %4, align 8, !tbaa !50
  store ptr %1, ptr %5, align 8, !tbaa !13
  call void @llvm.lifetime.start.p0(i64 3, ptr %6) #12
  call void @llvm.memcpy.p0.p0.i64(ptr align 1 %6, ptr align 1 @__const.parsePathInfo.delimiter, i64 3, i1 false)
  call void @llvm.lifetime.start.p0(i64 8, ptr %7) #12
  call void @llvm.lifetime.start.p0(i64 4, ptr %8) #12
  store i32 0, ptr %8, align 4, !tbaa !4
  call void @llvm.lifetime.start.p0(i64 8, ptr %9) #12
  store ptr @.str.310, ptr %9, align 8, !tbaa !13
  %11 = load ptr, ptr %5, align 8, !tbaa !13
  %12 = getelementptr inbounds [3 x i8], ptr %6, i64 0, i64 0
  %13 = call ptr @strtok(ptr noundef %11, ptr noundef %12) #12
  store ptr %13, ptr %7, align 8, !tbaa !13
  %14 = load ptr, ptr %7, align 8, !tbaa !13
  %15 = call i64 @strlen(ptr noundef %14) #14
  %16 = icmp uge i64 %15, 255
  br i1 %16, label %17, label %21

17:                                               ; preds = %2
  %18 = load ptr, ptr @stderr, align 8, !tbaa !15
  %19 = load ptr, ptr %9, align 8, !tbaa !13
  %20 = call i32 (ptr, ptr, ...) @fprintf(ptr noundef %18, ptr noundef @.str.12, ptr noundef %19) #12
  store i32 -1, ptr %3, align 4
  store i32 1, ptr %10, align 4
  br label %60

21:                                               ; preds = %2
  %22 = load ptr, ptr %4, align 8, !tbaa !50
  %23 = getelementptr inbounds nuw %struct.path_info, ptr %22, i32 0, i32 0
  %24 = load i32, ptr %8, align 4, !tbaa !4
  %25 = add nsw i32 %24, 1
  store i32 %25, ptr %8, align 4, !tbaa !4
  %26 = sext i32 %24 to i64
  %27 = getelementptr inbounds [20 x [255 x i8]], ptr %23, i64 0, i64 %26
  %28 = getelementptr inbounds [255 x i8], ptr %27, i64 0, i64 0
  %29 = load ptr, ptr %7, align 8, !tbaa !13
  %30 = call ptr @strcpy(ptr noundef %28, ptr noundef %29) #12
  br label %31

31:                                               ; preds = %46, %21
  br label %32

32:                                               ; preds = %31
  %33 = getelementptr inbounds [3 x i8], ptr %6, i64 0, i64 0
  %34 = call ptr @strtok(ptr noundef null, ptr noundef %33) #12
  store ptr %34, ptr %7, align 8, !tbaa !13
  %35 = load ptr, ptr %7, align 8, !tbaa !13
  %36 = icmp eq ptr %35, null
  br i1 %36, label %37, label %38

37:                                               ; preds = %32
  br label %56

38:                                               ; preds = %32
  %39 = load ptr, ptr %7, align 8, !tbaa !13
  %40 = call i64 @strlen(ptr noundef %39) #14
  %41 = icmp uge i64 %40, 255
  br i1 %41, label %42, label %46

42:                                               ; preds = %38
  %43 = load ptr, ptr @stderr, align 8, !tbaa !15
  %44 = load ptr, ptr %9, align 8, !tbaa !13
  %45 = call i32 (ptr, ptr, ...) @fprintf(ptr noundef %43, ptr noundef @.str.12, ptr noundef %44) #12
  store i32 -1, ptr %3, align 4
  store i32 1, ptr %10, align 4
  br label %60

46:                                               ; preds = %38
  %47 = load ptr, ptr %4, align 8, !tbaa !50
  %48 = getelementptr inbounds nuw %struct.path_info, ptr %47, i32 0, i32 0
  %49 = load i32, ptr %8, align 4, !tbaa !4
  %50 = add nsw i32 %49, 1
  store i32 %50, ptr %8, align 4, !tbaa !4
  %51 = sext i32 %49 to i64
  %52 = getelementptr inbounds [20 x [255 x i8]], ptr %48, i64 0, i64 %51
  %53 = getelementptr inbounds [255 x i8], ptr %52, i64 0, i64 0
  %54 = load ptr, ptr %7, align 8, !tbaa !13
  %55 = call ptr @strcpy(ptr noundef %53, ptr noundef %54) #12
  br label %31

56:                                               ; preds = %37
  %57 = load i32, ptr %8, align 4, !tbaa !4
  %58 = load ptr, ptr %4, align 8, !tbaa !50
  %59 = getelementptr inbounds nuw %struct.path_info, ptr %58, i32 0, i32 1
  store i32 %57, ptr %59, align 4, !tbaa !52
  store i32 0, ptr %3, align 4
  store i32 1, ptr %10, align 4
  br label %60

60:                                               ; preds = %56, %42, %17
  call void @llvm.lifetime.end.p0(i64 8, ptr %9) #12
  call void @llvm.lifetime.end.p0(i64 4, ptr %8) #12
  call void @llvm.lifetime.end.p0(i64 8, ptr %7) #12
  call void @llvm.lifetime.end.p0(i64 3, ptr %6) #12
  %61 = load i32, ptr %3, align 4
  ret i32 %61
}