; Function Attrs: nofree nounwind uwtable
define internal fastcc range(i32 -1, 1) i32 @parsePathInfo(ptr noundef %0, ptr noundef %1) unnamed_addr #7 {
  %3 = tail call ptr @strtok(ptr noundef %1, ptr noundef nonnull @__const.parsePathInfo.delimiter) #18
  %4 = tail call i64 @strlen(ptr noundef nonnull dereferenceable(1) %3) #22
  %5 = icmp ugt i64 %4, 254
  br i1 %5, label %6, label %9

6:                                                ; preds = %2
  %7 = load ptr, ptr @stderr, align 8, !tbaa !4
  %8 = tail call i64 @fwrite(ptr nonnull @.str.310, i64 46, i64 1, ptr %7) #24
  br label %26

9:                                                ; preds = %2
  %10 = tail call ptr @strcpy(ptr noundef nonnull dereferenceable(1) %0, ptr noundef nonnull dereferenceable(1) %3) #18
  %11 = tail call ptr @strtok(ptr noundef null, ptr noundef nonnull @__const.parsePathInfo.delimiter) #18
  %12 = icmp eq ptr %11, null
  br i1 %12, label %._crit_edge, label %.lr.ph

.lr.ph:                                           ; preds = %9, %19
  %indvars.iv = phi i64 [ %indvars.iv.next, %19 ], [ 1, %9 ]
  %13 = phi ptr [ %22, %19 ], [ %11, %9 ]
  %14 = tail call i64 @strlen(ptr noundef nonnull dereferenceable(1) %13) #22
  %15 = icmp ugt i64 %14, 254
  br i1 %15, label %16, label %19

16:                                               ; preds = %.lr.ph
  %17 = load ptr, ptr @stderr, align 8, !tbaa !4
  %18 = tail call i64 @fwrite(ptr nonnull @.str.310, i64 46, i64 1, ptr %17) #24
  br label %26

19:                                               ; preds = %.lr.ph
  %indvars.iv.next = add nuw nsw i64 %indvars.iv, 1
  %20 = getelementptr inbounds nuw [20 x [255 x i8]], ptr %0, i64 0, i64 %indvars.iv
  %21 = tail call ptr @strcpy(ptr noundef nonnull dereferenceable(1) %20, ptr noundef nonnull dereferenceable(1) %13) #18
  %22 = tail call ptr @strtok(ptr noundef null, ptr noundef nonnull @__const.parsePathInfo.delimiter) #18
  %23 = icmp eq ptr %22, null
  br i1 %23, label %._crit_edge.loopexit, label %.lr.ph

._crit_edge.loopexit:                             ; preds = %19
  %24 = trunc nuw i64 %indvars.iv.next to i32
  br label %._crit_edge

._crit_edge:                                      ; preds = %._crit_edge.loopexit, %9
  %.014.lcssa = phi i32 [ 1, %9 ], [ %24, %._crit_edge.loopexit ]
  %25 = getelementptr inbounds nuw i8, ptr %0, i64 5100
  store i32 %.014.lcssa, ptr %25, align 4, !tbaa !95
  br label %26

26:                                               ; preds = %._crit_edge, %16, %6
  %.0 = phi i32 [ -1, %6 ], [ 0, %._crit_edge ], [ -1, %16 ]
  ret i32 %.0
}